target datalayout = "e-m:e-p270:32:32-p271:32:32-p272:64:64-i64:64-i128:128-f80:128-n8:16:32:64-S128"
target triple = "x86_64-pc-linux-gnu"

%struct.H5LT_file_image_ud_t = type { ptr, i64, ptr, i64, i32, ptr, i64, i32, i32, i32 }

; Function Attrs: nounwind uwtable
define internal ptr @image_malloc(i64 noundef %0, i32 noundef %1, ptr noundef %2) #0 {
  %4 = alloca ptr, align 8
  %5 = alloca i64, align 8
  %6 = alloca i32, align 4
  %7 = alloca ptr, align 8
  %8 = alloca ptr, align 8
  %9 = alloca ptr, align 8
  %10 = alloca i32, align 4
  store i64 %0, ptr %5, align 8, !tbaa !3
  store i32 %1, ptr %6, align 4, !tbaa !10
  store ptr %2, ptr %7, align 8, !tbaa !14
  call void @llvm.lifetime.start.p0(i64 8, ptr %8) #11
  %11 = load ptr, ptr %7, align 8, !tbaa !14
  store ptr %11, ptr %8, align 8, !tbaa !14
  call void @llvm.lifetime.start.p0(i64 8, ptr %9) #11
  store ptr null, ptr %9, align 8, !tbaa !14
  %12 = load ptr, ptr %8, align 8, !tbaa !14
  %13 = getelementptr inbounds nuw %struct.H5LT_file_image_ud_t, ptr %12, i32 0, i32 8
  %14 = load i32, ptr %13, align 4, !tbaa !39
  %15 = and i32 %14, 2
  %16 = icmp ne i32 %15, 0
  br i1 %16, label %18, label %17

17:                                               ; preds = %3
  br label %154

18:                                               ; preds = %3
  %19 = load i32, ptr %6, align 4, !tbaa !10
  switch i32 %19, label %151 [
    i32 1, label %20
    i32 2, label %69
    i32 3, label %96
    i32 5, label %97
    i32 0, label %150
    i32 4, label %150
    i32 6, label %150
    i32 7, label %150
  ]

20:                                               ; preds = %18
  %21 = load ptr, ptr %8, align 8, !tbaa !14
  %22 = getelementptr inbounds nuw %struct.H5LT_file_image_ud_t, ptr %21, i32 0, i32 0
  %23 = load ptr, ptr %22, align 8, !tbaa !30
  %24 = icmp eq ptr %23, null
  br i1 %24, label %25, label %26

25:                                               ; preds = %20
  br label %154

26:                                               ; preds = %20
  %27 = load ptr, ptr %8, align 8, !tbaa !14
  %28 = getelementptr inbounds nuw %struct.H5LT_file_image_ud_t, ptr %27, i32 0, i32 1
  %29 = load i64, ptr %28, align 8, !tbaa !32
  %30 = load i64, ptr %5, align 8, !tbaa !3
  %31 = icmp ne i64 %29, %30
  br i1 %31, label %32, label %33

32:                                               ; preds = %26
  br label %154

33:                                               ; preds = %26
  %34 = load ptr, ptr %8, align 8, !tbaa !14
  %35 = getelementptr inbounds nuw %struct.H5LT_file_image_ud_t, ptr %34, i32 0, i32 2
  %36 = load ptr, ptr %35, align 8, !tbaa !33
  %37 = icmp ne ptr %36, null
  br i1 %37, label %38, label %39

38:                                               ; preds = %33
  br label %154

39:                                               ; preds = %33
  %40 = load ptr, ptr %8, align 8, !tbaa !14
  %41 = getelementptr inbounds nuw %struct.H5LT_file_image_ud_t, ptr %40, i32 0, i32 3
  %42 = load i64, ptr %41, align 8, !tbaa !34
  %43 = icmp ne i64 %42, 0
  br i1 %43, label %44, label %45

44:                                               ; preds = %39
  br label %154

45:                                               ; preds = %39
  %46 = load ptr, ptr %8, align 8, !tbaa !14
  %47 = getelementptr inbounds nuw %struct.H5LT_file_image_ud_t, ptr %46, i32 0, i32 4
  %48 = load i32, ptr %47, align 8, !tbaa !35
  %49 = icmp ne i32 %48, 0
  br i1 %49, label %50, label %51

50:                                               ; preds = %45
  br label %154

51:                                               ; preds = %45
  %52 = load ptr, ptr %8, align 8, !tbaa !14
  %53 = getelementptr inbounds nuw %struct.H5LT_file_image_ud_t, ptr %52, i32 0, i32 0
  %54 = load ptr, ptr %53, align 8, !tbaa !30
  %55 = load ptr, ptr %8, align 8, !tbaa !14
  %56 = getelementptr inbounds nuw %struct.H5LT_file_image_ud_t, ptr %55, i32 0, i32 2
  store ptr %54, ptr %56, align 8, !tbaa !33
  %57 = load ptr, ptr %8, align 8, !tbaa !14
  %58 = getelementptr inbounds nuw %struct.H5LT_file_image_ud_t, ptr %57, i32 0, i32 1
  %59 = load i64, ptr %58, align 8, !tbaa !32
  %60 = load ptr, ptr %8, align 8, !tbaa !14
  %61 = getelementptr inbounds nuw %struct.H5LT_file_image_ud_t, ptr %60, i32 0, i32 3
  store i64 %59, ptr %61, align 8, !tbaa !34
  %62 = load ptr, ptr %8, align 8, !tbaa !14
  %63 = getelementptr inbounds nuw %struct.H5LT_file_image_ud_t, ptr %62, i32 0, i32 2
  %64 = load ptr, ptr %63, align 8, !tbaa !33
  store ptr %64, ptr %9, align 8, !tbaa !14
  %65 = load ptr, ptr %8, align 8, !tbaa !14
  %66 = getelementptr inbounds nuw %struct.H5LT_file_image_ud_t, ptr %65, i32 0, i32 4
  %67 = load i32, ptr %66, align 8, !tbaa !35
  %68 = add nsw i32 %67, 1
  store i32 %68, ptr %66, align 8, !tbaa !35
  br label %152

69:                                               ; preds = %18
  %70 = load ptr, ptr %8, align 8, !tbaa !14
  %71 = getelementptr inbounds nuw %struct.H5LT_file_image_ud_t, ptr %70, i32 0, i32 2
  %72 = load ptr, ptr %71, align 8, !tbaa !33
  %73 = icmp eq ptr %72, null
  br i1 %73, label %74, label %75

74:                                               ; preds = %69
  br label %154

75:                                               ; preds = %69
  %76 = load ptr, ptr %8, align 8, !tbaa !14
  %77 = getelementptr inbounds nuw %struct.H5LT_file_image_ud_t, ptr %76, i32 0, i32 3
  %78 = load i64, ptr %77, align 8, !tbaa !34
  %79 = load i64, ptr %5, align 8, !tbaa !3
  %80 = icmp ne i64 %78, %79
  br i1 %80, label %81, label %82

81:                                               ; preds = %75
  br label %154

82:                                               ; preds = %75
  %83 = load ptr, ptr %8, align 8, !tbaa !14
  %84 = getelementptr inbounds nuw %struct.H5LT_file_image_ud_t, ptr %83, i32 0, i32 4
  %85 = load i32, ptr %84, align 8, !tbaa !35
  %86 = icmp eq i32 %85, 0
  br i1 %86, label %87, label %88

87:                                               ; preds = %82
  br label %154

88:                                               ; preds = %82
  %89 = load ptr, ptr %8, align 8, !tbaa !14
  %90 = getelementptr inbounds nuw %struct.H5LT_file_image_ud_t, ptr %89, i32 0, i32 2
  %91 = load ptr, ptr %90, align 8, !tbaa !33
  store ptr %91, ptr %9, align 8, !tbaa !14
  %92 = load ptr, ptr %8, align 8, !tbaa !14
  %93 = getelementptr inbounds nuw %struct.H5LT_file_image_ud_t, ptr %92, i32 0, i32 4
  %94 = load i32, ptr %93, align 8, !tbaa !35
  %95 = add nsw i32 %94, 1
  store i32 %95, ptr %93, align 8, !tbaa !35
  br label %152

96:                                               ; preds = %18
  br label %154

97:                                               ; preds = %18
  %98 = load ptr, ptr %8, align 8, !tbaa !14
  %99 = getelementptr inbounds nuw %struct.H5LT_file_image_ud_t, ptr %98, i32 0, i32 5
  %100 = load ptr, ptr %99, align 8, !tbaa !36
  %101 = icmp ne ptr %100, null
  br i1 %101, label %102, label %103

102:                                              ; preds = %97
  br label %154

103:                                              ; preds = %97
  %104 = load ptr, ptr %8, align 8, !tbaa !14
  %105 = getelementptr inbounds nuw %struct.H5LT_file_image_ud_t, ptr %104, i32 0, i32 6
  %106 = load i64, ptr %105, align 8, !tbaa !37
  %107 = icmp ne i64 %106, 0
  br i1 %107, label %108, label %109

108:                                              ; preds = %103
  br label %154

109:                                              ; preds = %103
  %110 = load ptr, ptr %8, align 8, !tbaa !14
  %111 = getelementptr inbounds nuw %struct.H5LT_file_image_ud_t, ptr %110, i32 0, i32 7
  %112 = load i32, ptr %111, align 8, !tbaa !38
  %113 = icmp ne i32 %112, 0
  br i1 %113, label %114, label %115

114:                                              ; preds = %109
  br label %154

115:                                              ; preds = %109
  %116 = load ptr, ptr %8, align 8, !tbaa !14
  %117 = getelementptr inbounds nuw %struct.H5LT_file_image_ud_t, ptr %116, i32 0, i32 2
  %118 = load ptr, ptr %117, align 8, !tbaa !33
  %119 = icmp eq ptr %118, null
  br i1 %119, label %120, label %121

120:                                              ; preds = %115
  br label %154

121:                                              ; preds = %115
  %122 = load ptr, ptr %8, align 8, !tbaa !14
  %123 = getelementptr inbounds nuw %struct.H5LT_file_image_ud_t, ptr %122, i32 0, i32 3
  %124 = load i64, ptr %123, align 8, !tbaa !34
  %125 = load i64, ptr %5, align 8, !tbaa !3
  %126 = icmp ne i64 %124, %125
  br i1 %126, label %127, label %128

127:                                              ; preds = %121
  br label %154

128:                                              ; preds = %121
  %129 = load ptr, ptr %8, align 8, !tbaa !14
  %130 = getelementptr inbounds nuw %struct.H5LT_file_image_ud_t, ptr %129, i32 0, i32 4
  %131 = load i32, ptr %130, align 8, !tbaa !35
  %132 = icmp eq i32 %131, 0
  br i1 %132, label %133, label %134

133:                                              ; preds = %128
  br label %154

134:                                              ; preds = %128
  %135 = load ptr, ptr %8, align 8, !tbaa !14
  %136 = getelementptr inbounds nuw %struct.H5LT_file_image_ud_t, ptr %135, i32 0, i32 2
  %137 = load ptr, ptr %136, align 8, !tbaa !33
  %138 = load ptr, ptr %8, align 8, !tbaa !14
  %139 = getelementptr inbounds nuw %struct.H5LT_file_image_ud_t, ptr %138, i32 0, i32 5
  store ptr %137, ptr %139, align 8, !tbaa !36
  %140 = load i64, ptr %5, align 8, !tbaa !3
  %141 = load ptr, ptr %8, align 8, !tbaa !14
  %142 = getelementptr inbounds nuw %struct.H5LT_file_image_ud_t, ptr %141, i32 0, i32 6
  store i64 %140, ptr %142, align 8, !tbaa !37
  %143 = load ptr, ptr %8, align 8, !tbaa !14
  %144 = getelementptr inbounds nuw %struct.H5LT_file_image_ud_t, ptr %143, i32 0, i32 7
  %145 = load i32, ptr %144, align 8, !tbaa !38
  %146 = add nsw i32 %145, 1
  store i32 %146, ptr %144, align 8, !tbaa !38
  %147 = load ptr, ptr %8, align 8, !tbaa !14
  %148 = getelementptr inbounds nuw %struct.H5LT_file_image_ud_t, ptr %147, i32 0, i32 5
  %149 = load ptr, ptr %148, align 8, !tbaa !36
  store ptr %149, ptr %9, align 8, !tbaa !14
  br label %152

150:                                              ; preds = %18, %18, %18, %18
  br label %151

151:                                              ; preds = %18, %150
  br label %154

152:                                              ; preds = %134, %88, %51
  %153 = load ptr, ptr %9, align 8, !tbaa !14
  store ptr %153, ptr %4, align 8
  store i32 1, ptr %10, align 4
  br label %155

154:                                              ; preds = %151, %133, %127, %120, %114, %108, %102, %96, %87, %81, %74, %50, %44, %38, %32, %25, %17
  store ptr null, ptr %4, align 8
  store i32 1, ptr %10, align 4
  br label %155

155:                                              ; preds = %154, %152
  call void @llvm.lifetime.end.p0(i64 8, ptr %9) #11
  call void @llvm.lifetime.end.p0(i64 8, ptr %8) #11
  %156 = load ptr, ptr %4, align 8
  ret ptr %156
}