; Function Attrs: mustprogress nofree norecurse nosync nounwind willreturn memory(argmem: readwrite) uwtable
define internal ptr @image_malloc(i64 noundef %0, i32 noundef %1, ptr noundef captures(none) %2) #4 {
  %4 = getelementptr inbounds nuw i8, ptr %2, i64 60
  %5 = load i32, ptr %4, align 4, !tbaa !20
  %6 = and i32 %5, 2
  %.not = icmp eq i32 %6, 0
  br i1 %.not, label %58, label %7

7:                                                ; preds = %3
  switch i32 %1, label %58 [
    i32 1, label %8
    i32 2, label %24
    i32 5, label %37
  ]

8:                                                ; preds = %7
  %9 = load ptr, ptr %2, align 8, !tbaa !17
  %10 = icmp eq ptr %9, null
  br i1 %10, label %58, label %11

11:                                               ; preds = %8
  %12 = getelementptr inbounds nuw i8, ptr %2, i64 8
  %13 = load i64, ptr %12, align 8, !tbaa !19
  %.not46 = icmp eq i64 %13, %0
  br i1 %.not46, label %14, label %58

14:                                               ; preds = %11
  %15 = getelementptr inbounds nuw i8, ptr %2, i64 16
  %16 = load ptr, ptr %15, align 8, !tbaa !24
  %.not47 = icmp eq ptr %16, null
  br i1 %.not47, label %17, label %58

17:                                               ; preds = %14
  %18 = getelementptr inbounds nuw i8, ptr %2, i64 24
  %19 = load i64, ptr %18, align 8, !tbaa !25
  %.not48 = icmp eq i64 %19, 0
  br i1 %.not48, label %20, label %58

20:                                               ; preds = %17
  %21 = getelementptr inbounds nuw i8, ptr %2, i64 32
  %22 = load i32, ptr %21, align 8, !tbaa !26
  %.not49 = icmp eq i32 %22, 0
  br i1 %.not49, label %23, label %58

23:                                               ; preds = %20
  store ptr %9, ptr %15, align 8, !tbaa !24
  store i64 %0, ptr %18, align 8, !tbaa !25
  store i32 1, ptr %21, align 8, !tbaa !26
  br label %58

24:                                               ; preds = %7
  %25 = getelementptr inbounds nuw i8, ptr %2, i64 16
  %26 = load ptr, ptr %25, align 8, !tbaa !24
  %27 = icmp eq ptr %26, null
  br i1 %27, label %58, label %28

28:                                               ; preds = %24
  %29 = getelementptr inbounds nuw i8, ptr %2, i64 24
  %30 = load i64, ptr %29, align 8, !tbaa !25
  %.not45 = icmp eq i64 %30, %0
  br i1 %.not45, label %31, label %58

31:                                               ; preds = %28
  %32 = getelementptr inbounds nuw i8, ptr %2, i64 32
  %33 = load i32, ptr %32, align 8, !tbaa !26
  %34 = icmp eq i32 %33, 0
  br i1 %34, label %58, label %35

35:                                               ; preds = %31
  %36 = add nsw i32 %33, 1
  store i32 %36, ptr %32, align 8, !tbaa !26
  br label %58

37:                                               ; preds = %7
  %38 = getelementptr inbounds nuw i8, ptr %2, i64 40
  %39 = load ptr, ptr %38, align 8, !tbaa !27
  %.not41 = icmp eq ptr %39, null
  br i1 %.not41, label %40, label %58

40:                                               ; preds = %37
  %41 = getelementptr inbounds nuw i8, ptr %2, i64 48
  %42 = load i64, ptr %41, align 8, !tbaa !28
  %.not42 = icmp eq i64 %42, 0
  br i1 %.not42, label %43, label %58

43:                                               ; preds = %40
  %44 = getelementptr inbounds nuw i8, ptr %2, i64 56
  %45 = load i32, ptr %44, align 8, !tbaa !29
  %.not43 = icmp eq i32 %45, 0
  br i1 %.not43, label %46, label %58

46:                                               ; preds = %43
  %47 = getelementptr inbounds nuw i8, ptr %2, i64 16
  %48 = load ptr, ptr %47, align 8, !tbaa !24
  %49 = icmp eq ptr %48, null
  br i1 %49, label %58, label %50

50:                                               ; preds = %46
  %51 = getelementptr inbounds nuw i8, ptr %2, i64 24
  %52 = load i64, ptr %51, align 8, !tbaa !25
  %.not44 = icmp eq i64 %52, %0
  br i1 %.not44, label %53, label %58

53:                                               ; preds = %50
  %54 = getelementptr inbounds nuw i8, ptr %2, i64 32
  %55 = load i32, ptr %54, align 8, !tbaa !26
  %56 = icmp eq i32 %55, 0
  br i1 %56, label %58, label %57

57:                                               ; preds = %53
  store ptr %48, ptr %38, align 8, !tbaa !27
  store i64 %0, ptr %41, align 8, !tbaa !28
  store i32 1, ptr %44, align 8, !tbaa !29
  br label %58

58:                                               ; preds = %3, %8, %11, %14, %17, %20, %24, %28, %31, %37, %40, %43, %46, %50, %53, %7, %23, %35, %57
  %.035 = phi ptr [ %48, %57 ], [ %26, %35 ], [ %9, %23 ], [ null, %7 ], [ null, %53 ], [ null, %50 ], [ null, %46 ], [ null, %43 ], [ null, %40 ], [ null, %37 ], [ null, %31 ], [ null, %28 ], [ null, %24 ], [ null, %20 ], [ null, %17 ], [ null, %14 ], [ null, %11 ], [ null, %8 ], [ null, %3 ]
  ret ptr %.035
}